target datalayout = "e-m:e-p270:32:32-p271:32:32-p272:64:64-i64:64-i128:128-f80:128-n8:16:32:64-S128"
target triple = "x86_64-pc-linux-gnu"

%struct._zval_struct = type { %union._zend_value, %union.anon.9, %union.anon.12 }
%union._zend_value = type { i64 }
%union.anon.9 = type { i32 }
%union.anon.12 = type { i32 }
%struct._zend_refcounted_h = type { i32, %union.anon.0 }
%union.anon.0 = type { i32 }
%struct._dom_object = type { ptr, ptr, ptr, %struct._zend_object }
%struct._zend_object = type { %struct._zend_refcounted_h, i32, ptr, ptr, ptr, [1 x %struct._zval_struct] }

; Function Attrs: nounwind uwtable
define internal ptr @php_dom_obj_from_obj(ptr noundef %0) #0 {
  %2 = alloca ptr, align 8
  store ptr %0, ptr %2, align 8
  %3 = load ptr, ptr %2, align 8
  %4 = getelementptr inbounds i8, ptr %3, i64 -24
  ret ptr %4
}

; Function Attrs: nounwind uwtable
define internal ptr @dom_get_property_ptr_ptr(ptr noundef %0, ptr noundef %1, i32 noundef %2, ptr noundef %3) #0 {
  %5 = alloca ptr, align 8
  %6 = alloca ptr, align 8
  %7 = alloca ptr, align 8
  %8 = alloca ptr, align 8
  %9 = alloca ptr, align 8
  %10 = alloca i32, align 4
  %11 = alloca ptr, align 8
  %12 = alloca ptr, align 8
  store ptr %0, ptr %8, align 8
  store ptr %1, ptr %9, align 8
  store i32 %2, ptr %10, align 4
  store ptr %3, ptr %11, align 8
  %13 = load ptr, ptr %8, align 8
  %14 = call ptr @php_dom_obj_from_obj(ptr noundef %13)
  store ptr %14, ptr %12, align 8
  %15 = load ptr, ptr %12, align 8
  %16 = getelementptr inbounds %struct._dom_object, ptr %15, i32 0, i32 2
  %17 = load ptr, ptr %16, align 8
  %18 = icmp ne ptr %17, null
  br i1 %18, label %19, label %28

19:                                               ; preds = %4
  %20 = load ptr, ptr %12, align 8
  %21 = getelementptr inbounds %struct._dom_object, ptr %20, i32 0, i32 2
  %22 = load ptr, ptr %21, align 8
  %23 = load ptr, ptr %9, align 8
  store ptr %22, ptr %5, align 8
  store ptr %23, ptr %6, align 8
  %24 = load ptr, ptr %5, align 8
  %25 = load ptr, ptr %6, align 8
  %26 = call ptr @zend_hash_find(ptr noundef %24, ptr noundef %25) #12
  %27 = icmp ne ptr %26, null
  br i1 %27, label %34, label %28

28:                                               ; preds = %19, %4
  %29 = load ptr, ptr %8, align 8
  %30 = load ptr, ptr %9, align 8
  %31 = load i32, ptr %10, align 4
  %32 = load ptr, ptr %11, align 8
  %33 = call ptr @zend_std_get_property_ptr_ptr(ptr noundef %29, ptr noundef %30, i32 noundef %31, ptr noundef %32)
  store ptr %33, ptr %7, align 8
  br label %35

34:                                               ; preds = %19
  store ptr null, ptr %7, align 8
  br label %35

35:                                               ; preds = %34, %28
  %36 = load ptr, ptr %7, align 8
  ret ptr %36
}