; Function Attrs: nounwind uwtable
define internal ptr @dom_get_property_ptr_ptr(ptr noundef %0, ptr noundef %1, i32 noundef %2, ptr noundef %3) #1 {
  %5 = getelementptr inbounds i8, ptr %0, i64 -8
  %6 = load ptr, ptr %5, align 8
  %.not = icmp eq ptr %6, null
  br i1 %.not, label %9, label %7

7:                                                ; preds = %4
  %8 = tail call ptr @zend_hash_find(ptr noundef nonnull %6, ptr noundef %1) #16
  %.not11 = icmp eq ptr %8, null
  br i1 %.not11, label %9, label %11

9:                                                ; preds = %7, %4
  %10 = tail call ptr @zend_std_get_property_ptr_ptr(ptr noundef nonnull %0, ptr noundef %1, i32 noundef %2, ptr noundef %3) #16
  br label %11

11:                                               ; preds = %7, %9
  %.0 = phi ptr [ %10, %9 ], [ null, %7 ]
  ret ptr %.0
}